; ModuleID = '46/2821.c'
source_filename = "46/2821.c"
target datalayout = "e-m:e-p270:32:32-p271:32:32-p272:64:64-i64:64-f80:128-n8:16:32:64-S128"
target triple = "x86_64-pc-linux-gnu"

@.str = private unnamed_addr constant [5 x i8] c"%d%d\00", align 1
@.str.1 = private unnamed_addr constant [3 x i8] c"%d\00", align 1
@a = common dso_local global [100 x [100 x i32]] zeroinitializer, align 16
@.str.2 = private unnamed_addr constant [4 x i8] c"%d\0A\00", align 1

; Function Attrs: noinline nounwind uwtable
define dso_local i32 @main() #0 {
  %1 = alloca i32, align 4
  %2 = alloca i32, align 4
  %3 = alloca i32, align 4
  %4 = alloca i32, align 4
  %5 = alloca i32, align 4
  %6 = alloca i32, align 4
  %7 = alloca i32, align 4
  %8 = alloca i32, align 4
  %9 = alloca i32, align 4
  %10 = alloca i32, align 4
  %11 = alloca i32, align 4
  %12 = alloca i32, align 4
  store i32 0, i32* %1, align 4
  %13 = call i32 (i8*, ...) @__isoc99_scanf(i8* getelementptr inbounds ([5 x i8], [5 x i8]* @.str, i64 0, i64 0), i32* %2, i32* %3)
  store i32 0, i32* %4, align 4
  br label %14

14:                                               ; preds = %35, %0
  %15 = load i32, i32* %4, align 4
  %16 = load i32, i32* %2, align 4
  %17 = icmp slt i32 %15, %16
  br i1 %17, label %18, label %38

18:                                               ; preds = %14
  store i32 0, i32* %5, align 4
  br label %19

19:                                               ; preds = %31, %18
  %20 = load i32, i32* %5, align 4
  %21 = load i32, i32* %3, align 4
  %22 = icmp slt i32 %20, %21
  br i1 %22, label %23, label %34

23:                                               ; preds = %19
  %24 = load i32, i32* %4, align 4
  %25 = sext i32 %24 to i64
  %26 = getelementptr inbounds [100 x [100 x i32]], [100 x [100 x i32]]* @a, i64 0, i64 %25
  %27 = load i32, i32* %5, align 4
  %28 = sext i32 %27 to i64
  %29 = getelementptr inbounds [100 x i32], [100 x i32]* %26, i64 0, i64 %28
  %30 = call i32 (i8*, ...) @__isoc99_scanf(i8* getelementptr inbounds ([3 x i8], [3 x i8]* @.str.1, i64 0, i64 0), i32* %29)
  br label %31

31:                                               ; preds = %23
  %32 = load i32, i32* %5, align 4
  %33 = add nsw i32 %32, 1
  store i32 %33, i32* %5, align 4
  br label %19

34:                                               ; preds = %19
  br label %35

35:                                               ; preds = %34
  %36 = load i32, i32* %4, align 4
  %37 = add nsw i32 %36, 1
  store i32 %37, i32* %4, align 4
  br label %14

38:                                               ; preds = %14
  store i32 1, i32* %6, align 4
  %39 = load i32, i32* %3, align 4
  %40 = sub nsw i32 %39, 1
  store i32 %40, i32* %9, align 4
  store i32 0, i32* %7, align 4
  %41 = load i32, i32* %2, align 4
  %42 = sub nsw i32 %41, 1
  store i32 %42, i32* %8, align 4
  store i32 1, i32* %10, align 4
  store i32 0, i32* %12, align 4
  store i32 0, i32* %11, align 4
  %43 = load i32, i32* getelementptr inbounds ([100 x [100 x i32]], [100 x [100 x i32]]* @a, i64 0, i64 0, i64 0), align 16
  %44 = call i32 (i8*, ...) @printf(i8* getelementptr inbounds ([4 x i8], [4 x i8]* @.str.2, i64 0, i64 0), i32 %43)
  store i32 1, i32* %4, align 4
  br label %45

45:                                               ; preds = %134, %38
  %46 = load i32, i32* %4, align 4
  %47 = load i32, i32* %2, align 4
  %48 = load i32, i32* %3, align 4
  %49 = mul nsw i32 %47, %48
  %50 = icmp slt i32 %46, %49
  br i1 %50, label %51, label %137

51:                                               ; preds = %45
  %52 = load i32, i32* %6, align 4
  %53 = icmp eq i32 %52, 1
  br i1 %53, label %54, label %62

54:                                               ; preds = %51
  %55 = load i32, i32* %11, align 4
  %56 = load i32, i32* %9, align 4
  %57 = icmp eq i32 %55, %56
  br i1 %57, label %58, label %61

58:                                               ; preds = %54
  %59 = load i32, i32* %9, align 4
  %60 = sub nsw i32 %59, 1
  store i32 %60, i32* %9, align 4
  store i32 -1, i32* %6, align 4
  br label %61

61:                                               ; preds = %58, %54
  br label %98

62:                                               ; preds = %51
  %63 = load i32, i32* %6, align 4
  %64 = icmp eq i32 %63, -1
  br i1 %64, label %65, label %73

65:                                               ; preds = %62
  %66 = load i32, i32* %12, align 4
  %67 = load i32, i32* %8, align 4
  %68 = icmp eq i32 %66, %67
  br i1 %68, label %69, label %72

69:                                               ; preds = %65
  %70 = load i32, i32* %8, align 4
  %71 = sub nsw i32 %70, 1
  store i32 %71, i32* %8, align 4
  store i32 2, i32* %6, align 4
  br label %72

72:                                               ; preds = %69, %65
  br label %97

73:                                               ; preds = %62
  %74 = load i32, i32* %6, align 4
  %75 = icmp eq i32 %74, 2
  br i1 %75, label %76, label %84

76:                                               ; preds = %73
  %77 = load i32, i32* %11, align 4
  %78 = load i32, i32* %7, align 4
  %79 = icmp eq i32 %77, %78
  br i1 %79, label %80, label %83

80:                                               ; preds = %76
  %81 = load i32, i32* %7, align 4
  %82 = add nsw i32 %81, 1
  store i32 %82, i32* %7, align 4
  store i32 -2, i32* %6, align 4
  br label %83

83:                                               ; preds = %80, %76
  br label %96

84:                                               ; preds = %73
  %85 = load i32, i32* %6, align 4
  %86 = icmp eq i32 %85, -2
  br i1 %86, label %87, label %95

87:                                               ; preds = %84
  %88 = load i32, i32* %12, align 4
  %89 = load i32, i32* %10, align 4
  %90 = icmp eq i32 %88, %89
  br i1 %90, label %91, label %94

91:                                               ; preds = %87
  %92 = load i32, i32* %10, align 4
  %93 = add nsw i32 %92, 1
  store i32 %93, i32* %10, align 4
  store i32 1, i32* %6, align 4
  br label %94

94:                                               ; preds = %91, %87
  br label %95

95:                                               ; preds = %94, %84
  br label %96

96:                                               ; preds = %95, %83
  br label %97

97:                                               ; preds = %96, %72
  br label %98

98:                                               ; preds = %97, %61
  %99 = load i32, i32* %6, align 4
  %100 = icmp eq i32 %99, 1
  br i1 %100, label %101, label %104

101:                                              ; preds = %98
  %102 = load i32, i32* %11, align 4
  %103 = add nsw i32 %102, 1
  store i32 %103, i32* %11, align 4
  br label %125

104:                                              ; preds = %98
  %105 = load i32, i32* %6, align 4
  %106 = icmp eq i32 %105, -1
  br i1 %106, label %107, label %110

107:                                              ; preds = %104
  %108 = load i32, i32* %12, align 4
  %109 = add nsw i32 %108, 1
  store i32 %109, i32* %12, align 4
  br label %124

110:                                              ; preds = %104
  %111 = load i32, i32* %6, align 4
  %112 = icmp eq i32 %111, 2
  br i1 %112, label %113, label %116

113:                                              ; preds = %110
  %114 = load i32, i32* %11, align 4
  %115 = sub nsw i32 %114, 1
  store i32 %115, i32* %11, align 4
  br label %123

116:                                              ; preds = %110
  %117 = load i32, i32* %6, align 4
  %118 = icmp eq i32 %117, -2
  br i1 %118, label %119, label %122

119:                                              ; preds = %116
  %120 = load i32, i32* %12, align 4
  %121 = sub nsw i32 %120, 1
  store i32 %121, i32* %12, align 4
  br label %122

122:                                              ; preds = %119, %116
  br label %123

123:                                              ; preds = %122, %113
  br label %124

124:                                              ; preds = %123, %107
  br label %125

125:                                              ; preds = %124, %101
  %126 = load i32, i32* %12, align 4
  %127 = sext i32 %126 to i64
  %128 = getelementptr inbounds [100 x [100 x i32]], [100 x [100 x i32]]* @a, i64 0, i64 %127
  %129 = load i32, i32* %11, align 4
  %130 = sext i32 %129 to i64
  %131 = getelementptr inbounds [100 x i32], [100 x i32]* %128, i64 0, i64 %130
  %132 = load i32, i32* %131, align 4
  %133 = call i32 (i8*, ...) @printf(i8* getelementptr inbounds ([4 x i8], [4 x i8]* @.str.2, i64 0, i64 0), i32 %132)
  br label %134

134:                                              ; preds = %125
  %135 = load i32, i32* %4, align 4
  %136 = add nsw i32 %135, 1
  store i32 %136, i32* %4, align 4
  br label %45

137:                                              ; preds = %45
  %138 = load i32, i32* %1, align 4
  ret i32 %138
}

declare dso_local i32 @__isoc99_scanf(i8*, ...) #1

declare dso_local i32 @printf(i8*, ...) #1


!llvm.module.flags = !{!0}
!llvm.ident = !{!1}

!0 = !{i32 1, !"wchar_size", i32 4}
!1 = !{!"clang version 10.0.0-4ubuntu1 "}
